target datalayout = "e-m:e-p270:32:32-p271:32:32-p272:64:64-i64:64-i128:128-f80:128-n8:16:32:64-S128"
target triple = "x86_64-pc-linux-gnu"

%struct._zend_accel_globals = type { i8, i8, i8, i8, i8, %struct._zend_accel_directives, ptr, ptr, [32 x i8], [32 x i8], i32, i8, i32, i8, i32, i64, i64, %struct._zend_array, i64, ptr, ptr, ptr, ptr, %struct._zend_string, [32768 x i8] }
%struct._zend_accel_directives = type { i64, i64, double, ptr, i64, i8, i8, i8, i8, i8, i8, i8, i8, i8, i8, i8, i64, i64, ptr, ptr, i64, i64, i64, i64, i64, ptr, ptr, ptr, i8, i8, i8, ptr, ptr }
%struct._zend_array = type { %struct._zend_refcounted_h, %union.anon.0, i32, %union.anon.1, i32, i32, i32, i32, i64, ptr }
%struct._zend_refcounted_h = type { i32, %union.anon }
%union.anon = type { i32 }
%union.anon.0 = type { i32 }
%union.anon.1 = type { ptr }
%struct._zend_string = type { %struct._zend_refcounted_h, i64, i64, [1 x i8] }
%struct._zend_stack = type { i32, i32, i32, ptr }
%struct._zend_executor_globals = type { %struct._zval_struct, %struct._zval_struct, [32 x ptr], ptr, ptr, %struct._zend_array, %struct._zend_array, ptr, i32, i32, ptr, ptr, ptr, ptr, ptr, ptr, i64, ptr, ptr, i32, i32, i64, i32, i32, i32, i8, i8, %struct.zend_atomic_bool_s, %struct.zend_atomic_bool_s, ptr, i64, ptr, ptr, %struct._zend_array, %struct._zend_array, i32, i8, %struct._zval_struct, %struct._zval_struct, %struct._zend_stack, %struct._zend_stack, %struct._zend_stack, ptr, i32, i32, i64, ptr, ptr, ptr, %struct._zend_objects_store, ptr, ptr, ptr, [3 x %struct._zend_op], ptr, i8, i8, i64, i32, i32, ptr, [16 x %struct._HashTableIterator], ptr, %union._zend_function, %struct._zend_op, %struct._zend_array, i64, %struct.zend_get_gc_buffer, ptr, ptr, ptr, i64, i8, i32, ptr, ptr, i64, %struct._zend_call_stack, i64, i64, [6 x ptr] }
%struct.zend_atomic_bool_s = type { i8 }
%struct._zval_struct = type { %union._zend_value, %union.anon.4, %union.anon.7 }
%union._zend_value = type { i64 }
%union.anon.4 = type { i32 }
%union.anon.7 = type { i32 }
%struct._zend_objects_store = type { ptr, i32, i32, i32 }
%struct._HashTableIterator = type { ptr, i32, i32 }
%union._zend_function = type { %struct._zend_op_array }
%struct._zend_op_array = type { i8, [3 x i8], i32, ptr, ptr, ptr, i32, i32, ptr, ptr, ptr, ptr, i32, i32, i32, i32, ptr, ptr, ptr, ptr, ptr, i32, i32, ptr, ptr, ptr, i32, i32, i32, i32, ptr, ptr, [6 x ptr] }
%struct._zend_op = type { ptr, %union._znode_op, %union._znode_op, %union._znode_op, i32, i32, i8, i8, i8, i8 }
%union._znode_op = type { i32 }
%struct.zend_get_gc_buffer = type { ptr, ptr, ptr }
%struct._zend_call_stack = type { ptr, i64 }
%struct._zend_persistent_script = type { %struct._zend_script, i64, i32, i64, i8, i8, i8, i32, i32, ptr, ptr, ptr, i64, %struct.zend_persistent_script_dynamic_members }
%struct._zend_script = type { ptr, %struct._zend_op_array, %struct._zend_array, %struct._zend_array }
%struct.zend_persistent_script_dynamic_members = type { i64, i64, i32, i64 }
%struct.__jmp_buf_tag = type { [8 x i64], i32, %struct.__sigset_t }
%struct.__sigset_t = type { [16 x i64] }
%struct.zend_type = type { ptr, i32 }
%struct.zend_type_list = type { i32, [1 x %struct.zend_type] }

@accel_globals = external global %struct._zend_accel_globals, align 8
@executor_globals = external global %struct._zend_executor_globals, align 8

; Function Attrs: nounwind uwtable
define internal ptr @zend_file_cache_unserialize_interned(ptr noundef %0, i1 noundef zeroext %1) #0 {
  %3 = alloca ptr, align 8
  %4 = alloca i32, align 4
  %5 = alloca ptr, align 8
  %6 = alloca ptr, align 8
  %7 = alloca i8, align 1
  %8 = alloca ptr, align 8
  %9 = alloca i64, align 8
  store ptr %0, ptr %6, align 8
  %10 = zext i1 %1 to i8
  store i8 %10, ptr %7, align 1
  %11 = load ptr, ptr getelementptr inbounds (%struct._zend_accel_globals, ptr @accel_globals, i32 0, i32 19), align 8
  %12 = load ptr, ptr %6, align 8
  %13 = ptrtoint ptr %12 to i64
  %14 = and i64 %13, -2
  %15 = getelementptr inbounds i8, ptr %11, i64 %14
  store ptr %15, ptr %6, align 8
  %16 = load i8, ptr %7, align 1
  %17 = trunc i8 %16 to i1
  br i1 %17, label %20, label %18

18:                                               ; preds = %2
  %19 = load ptr, ptr %6, align 8
  store ptr %19, ptr %5, align 8
  br label %52

20:                                               ; preds = %2
  %21 = load ptr, ptr %6, align 8
  %22 = call ptr @accel_new_interned_string(ptr noundef %21)
  store ptr %22, ptr %8, align 8
  %23 = load ptr, ptr %8, align 8
  %24 = load ptr, ptr %6, align 8
  %25 = icmp eq ptr %23, %24
  br i1 %25, label %26, label %50

26:                                               ; preds = %20
  %27 = load ptr, ptr %6, align 8
  %28 = getelementptr inbounds %struct._zend_string, ptr %27, i32 0, i32 2
  %29 = load i64, ptr %28, align 8
  %30 = add i64 24, %29
  %31 = add i64 %30, 1
  store i64 %31, ptr %9, align 8
  %32 = load i64, ptr %9, align 8
  %33 = call ptr @zend_shared_alloc(i64 noundef %32)
  store ptr %33, ptr %8, align 8
  %34 = load ptr, ptr %8, align 8
  %35 = icmp ne ptr %34, null
  br i1 %35, label %39, label %36

36:                                               ; preds = %26
  call void @zend_accel_schedule_restart_if_necessary(i32 noundef 0)
  %37 = load ptr, ptr getelementptr inbounds (%struct._zend_executor_globals, ptr @executor_globals, i32 0, i32 7), align 8
  %38 = getelementptr inbounds [1 x %struct.__jmp_buf_tag], ptr %37, i64 0, i64 0
  call void @siglongjmp(ptr noundef %38, i32 noundef -1) #19
  unreachable

39:                                               ; preds = %26
  %40 = load ptr, ptr %8, align 8
  %41 = load ptr, ptr %6, align 8
  %42 = load i64, ptr %9, align 8
  call void @llvm.memcpy.p0.p0.i64(ptr align 8 %40, ptr align 8 %41, i64 %42, i1 false)
  %43 = load ptr, ptr %8, align 8
  %44 = getelementptr inbounds %struct._zend_string, ptr %43, i32 0, i32 0
  store ptr %44, ptr %3, align 8
  store i32 1, ptr %4, align 4
  %45 = load i32, ptr %4, align 4
  %46 = load ptr, ptr %3, align 8
  store i32 %45, ptr %46, align 4
  %47 = load ptr, ptr %8, align 8
  %48 = getelementptr inbounds %struct._zend_string, ptr %47, i32 0, i32 0
  %49 = getelementptr inbounds %struct._zend_refcounted_h, ptr %48, i32 0, i32 1
  store i32 470, ptr %49, align 4
  br label %50

50:                                               ; preds = %39, %20
  %51 = load ptr, ptr %8, align 8
  store ptr %51, ptr %5, align 8
  br label %52

52:                                               ; preds = %50, %18
  %53 = load ptr, ptr %5, align 8
  ret ptr %53
}

; Function Attrs: nounwind uwtable
define internal void @zend_file_cache_unserialize_type(ptr noundef %0, ptr noundef %1, ptr noundef %2, ptr noundef %3) #0 {
  %5 = alloca ptr, align 8
  %6 = alloca ptr, align 8
  %7 = alloca ptr, align 8
  %8 = alloca ptr, align 8
  %9 = alloca ptr, align 8
  %10 = alloca ptr, align 8
  %11 = alloca ptr, align 8
  %12 = alloca ptr, align 8
  %13 = alloca ptr, align 8
  store ptr %0, ptr %5, align 8
  store ptr %1, ptr %6, align 8
  store ptr %2, ptr %7, align 8
  store ptr %3, ptr %8, align 8
  %14 = load ptr, ptr %5, align 8
  %15 = getelementptr inbounds %struct.zend_type, ptr %14, i32 0, i32 1
  %16 = load i32, ptr %15, align 8
  %17 = and i32 %16, 4194304
  %18 = icmp ne i32 %17, 0
  br i1 %18, label %19, label %67

19:                                               ; preds = %4
  %20 = load ptr, ptr %5, align 8
  %21 = getelementptr inbounds %struct.zend_type, ptr %20, i32 0, i32 0
  %22 = load ptr, ptr %21, align 8
  store ptr %22, ptr %9, align 8
  br label %23

23:                                               ; preds = %19
  %24 = load ptr, ptr %9, align 8
  %25 = icmp ne ptr %24, null
  br i1 %25, label %26, label %37

26:                                               ; preds = %23
  %27 = load ptr, ptr %9, align 8
  %28 = load ptr, ptr %7, align 8
  %29 = getelementptr inbounds %struct._zend_persistent_script, ptr %28, i32 0, i32 12
  %30 = load i64, ptr %29, align 8
  %31 = inttoptr i64 %30 to ptr
  %32 = icmp ule ptr %27, %31
  call void @llvm.assume(i1 %32)
  %33 = load ptr, ptr %8, align 8
  %34 = load ptr, ptr %9, align 8
  %35 = ptrtoint ptr %34 to i64
  %36 = getelementptr inbounds i8, ptr %33, i64 %35
  store ptr %36, ptr %9, align 8
  br label %37

37:                                               ; preds = %26, %23
  br label %38

38:                                               ; preds = %37
  %39 = load ptr, ptr %9, align 8
  %40 = load ptr, ptr %5, align 8
  %41 = getelementptr inbounds %struct.zend_type, ptr %40, i32 0, i32 0
  store ptr %39, ptr %41, align 8
  br label %42

42:                                               ; preds = %38
  %43 = load ptr, ptr %9, align 8
  %44 = getelementptr inbounds %struct.zend_type_list, ptr %43, i32 0, i32 1
  %45 = getelementptr inbounds [1 x %struct.zend_type], ptr %44, i64 0, i64 0
  store ptr %45, ptr %11, align 8
  %46 = load ptr, ptr %11, align 8
  %47 = load ptr, ptr %9, align 8
  %48 = getelementptr inbounds %struct.zend_type_list, ptr %47, i32 0, i32 0
  %49 = load i32, ptr %48, align 8
  %50 = zext i32 %49 to i64
  %51 = getelementptr inbounds %struct.zend_type, ptr %46, i64 %50
  store ptr %51, ptr %12, align 8
  br label %52

52:                                               ; preds = %62, %42
  %53 = load ptr, ptr %11, align 8
  %54 = load ptr, ptr %12, align 8
  %55 = icmp ult ptr %53, %54
  br i1 %55, label %56, label %65

56:                                               ; preds = %52
  %57 = load ptr, ptr %11, align 8
  store ptr %57, ptr %10, align 8
  %58 = load ptr, ptr %10, align 8
  %59 = load ptr, ptr %6, align 8
  %60 = load ptr, ptr %7, align 8
  %61 = load ptr, ptr %8, align 8
  call void @zend_file_cache_unserialize_type(ptr noundef %58, ptr noundef %59, ptr noundef %60, ptr noundef %61)
  br label %62

62:                                               ; preds = %56
  %63 = load ptr, ptr %11, align 8
  %64 = getelementptr inbounds %struct.zend_type, ptr %63, i32 1
  store ptr %64, ptr %11, align 8
  br label %52

65:                                               ; preds = %52
  br label %66

66:                                               ; preds = %65
  br label %155

67:                                               ; preds = %4
  %68 = load ptr, ptr %5, align 8
  %69 = getelementptr inbounds %struct.zend_type, ptr %68, i32 0, i32 1
  %70 = load i32, ptr %69, align 8
  %71 = and i32 %70, 16777216
  %72 = icmp ne i32 %71, 0
  br i1 %72, label %73, label %154

73:                                               ; preds = %67
  %74 = load ptr, ptr %5, align 8
  %75 = getelementptr inbounds %struct.zend_type, ptr %74, i32 0, i32 0
  %76 = load ptr, ptr %75, align 8
  store ptr %76, ptr %13, align 8
  br label %77

77:                                               ; preds = %73
  %78 = load ptr, ptr %13, align 8
  %79 = icmp ne ptr %78, null
  br i1 %79, label %80, label %139

80:                                               ; preds = %77
  %81 = load ptr, ptr %13, align 8
  %82 = ptrtoint ptr %81 to i64
  %83 = and i64 %82, 1
  %84 = icmp ne i64 %83, 0
  br i1 %84, label %85, label %93

85:                                               ; preds = %80
  %86 = load ptr, ptr %13, align 8
  %87 = load ptr, ptr %7, align 8
  %88 = getelementptr inbounds %struct._zend_persistent_script, ptr %87, i32 0, i32 4
  %89 = load i8, ptr %88, align 8
  %90 = trunc i8 %89 to i1
  %91 = xor i1 %90, true
  %92 = call ptr @zend_file_cache_unserialize_interned(ptr noundef %86, i1 noundef zeroext %91)
  store ptr %92, ptr %13, align 8
  br label %138

93:                                               ; preds = %80
  %94 = load ptr, ptr %13, align 8
  %95 = load ptr, ptr %7, align 8
  %96 = getelementptr inbounds %struct._zend_persistent_script, ptr %95, i32 0, i32 12
  %97 = load i64, ptr %96, align 8
  %98 = inttoptr i64 %97 to ptr
  %99 = icmp ule ptr %94, %98
  call void @llvm.assume(i1 %99)
  %100 = load ptr, ptr %8, align 8
  %101 = load ptr, ptr %13, align 8
  %102 = ptrtoint ptr %101 to i64
  %103 = getelementptr inbounds i8, ptr %100, i64 %102
  store ptr %103, ptr %13, align 8
  %104 = load ptr, ptr %7, align 8
  %105 = getelementptr inbounds %struct._zend_persistent_script, ptr %104, i32 0, i32 4
  %106 = load i8, ptr %105, align 8
  %107 = trunc i8 %106 to i1
  %108 = xor i1 %107, true
  %109 = xor i1 %108, true
  %110 = xor i1 %109, true
  %111 = zext i1 %110 to i32
  %112 = sext i32 %111 to i64
  %113 = icmp ne i64 %112, 0
  br i1 %113, label %114, label %122

114:                                              ; preds = %93
  br label %115

115:                                              ; preds = %114
  %116 = load ptr, ptr %13, align 8
  %117 = getelementptr inbounds %struct._zend_string, ptr %116, i32 0, i32 0
  %118 = getelementptr inbounds %struct._zend_refcounted_h, ptr %117, i32 0, i32 1
  %119 = load i32, ptr %118, align 4
  %120 = or i32 %119, 320
  store i32 %120, ptr %118, align 4
  br label %121

121:                                              ; preds = %115
  br label %137

122:                                              ; preds = %93
  br label %123

123:                                              ; preds = %122
  %124 = load ptr, ptr %13, align 8
  %125 = getelementptr inbounds %struct._zend_string, ptr %124, i32 0, i32 0
  %126 = getelementptr inbounds %struct._zend_refcounted_h, ptr %125, i32 0, i32 1
  %127 = load i32, ptr %126, align 4
  %128 = or i32 %127, 64
  store i32 %128, ptr %126, align 4
  br label %129

129:                                              ; preds = %123
  br label %130

130:                                              ; preds = %129
  %131 = load ptr, ptr %13, align 8
  %132 = getelementptr inbounds %struct._zend_string, ptr %131, i32 0, i32 0
  %133 = getelementptr inbounds %struct._zend_refcounted_h, ptr %132, i32 0, i32 1
  %134 = load i32, ptr %133, align 4
  %135 = and i32 %134, -257
  store i32 %135, ptr %133, align 4
  br label %136

136:                                              ; preds = %130
  br label %137

137:                                              ; preds = %136, %121
  br label %138

138:                                              ; preds = %137, %85
  br label %139

139:                                              ; preds = %138, %77
  br label %140

140:                                              ; preds = %139
  %141 = load ptr, ptr %13, align 8
  %142 = load ptr, ptr %5, align 8
  %143 = getelementptr inbounds %struct.zend_type, ptr %142, i32 0, i32 0
  store ptr %141, ptr %143, align 8
  %144 = load ptr, ptr %7, align 8
  %145 = getelementptr inbounds %struct._zend_persistent_script, ptr %144, i32 0, i32 4
  %146 = load i8, ptr %145, align 8
  %147 = trunc i8 %146 to i1
  br i1 %147, label %151, label %148

148:                                              ; preds = %140
  %149 = load ptr, ptr %13, align 8
  %150 = call i32 @zend_accel_get_class_name_map_ptr(ptr noundef %149)
  br label %153

151:                                              ; preds = %140
  %152 = load ptr, ptr %13, align 8
  call void @zend_alloc_ce_cache(ptr noundef %152)
  br label %153

153:                                              ; preds = %151, %148
  br label %154

154:                                              ; preds = %153, %67
  br label %155

155:                                              ; preds = %154, %66
  ret void
}