; Function Attrs: nounwind uwtable
define internal fastcc void @zend_file_cache_unserialize_type(ptr nocapture noundef %0, ptr nocapture noundef readonly %1, ptr noundef %2) unnamed_addr #0 {
  %4 = getelementptr inbounds i8, ptr %0, i64 8
  %5 = load i32, ptr %4, align 8
  %6 = and i32 %5, 4194304
  %.not = icmp eq i32 %6, 0
  br i1 %.not, label %21, label %7

7:                                                ; preds = %3
  %8 = load ptr, ptr %0, align 8
  %.not50 = icmp eq ptr %8, null
  br i1 %.not50, label %16, label %9

9:                                                ; preds = %7
  %10 = getelementptr inbounds i8, ptr %1, i64 424
  %11 = load i64, ptr %10, align 8
  %12 = inttoptr i64 %11 to ptr
  %13 = icmp ule ptr %8, %12
  tail call void @llvm.assume(i1 %13)
  %14 = ptrtoint ptr %8 to i64
  %15 = getelementptr inbounds i8, ptr %2, i64 %14
  br label %16

16:                                               ; preds = %7, %9
  %.039 = phi ptr [ %15, %9 ], [ null, %7 ]
  store ptr %.039, ptr %0, align 8
  %17 = load i32, ptr %.039, align 8
  %18 = zext i32 %17 to i64
  %.idx = shl nuw nsw i64 %18, 4
  %.add = or disjoint i64 %.idx, 8
  %.ptr52 = getelementptr inbounds i8, ptr %.039, i64 %.add
  %.not53 = icmp eq i32 %17, 0
  br i1 %.not53, label %.loopexit, label %.lr.ph.preheader

.lr.ph.preheader:                                 ; preds = %16
  %.ptr = getelementptr inbounds i8, ptr %.039, i64 8
  br label %.lr.ph

.lr.ph:                                           ; preds = %.lr.ph.preheader, %.lr.ph
  %.04051 = phi ptr [ %19, %.lr.ph ], [ %.ptr, %.lr.ph.preheader ]
  tail call fastcc void @zend_file_cache_unserialize_type(ptr noundef nonnull %.04051, ptr noundef %1, ptr noundef %2)
  %19 = getelementptr inbounds i8, ptr %.04051, i64 16
  %20 = icmp ult ptr %19, %.ptr52
  br i1 %20, label %.lr.ph, label %.loopexit

21:                                               ; preds = %3
  %22 = and i32 %5, 16777216
  %.not44 = icmp eq i32 %22, 0
  br i1 %.not44, label %.loopexit, label %23

23:                                               ; preds = %21
  %24 = load ptr, ptr %0, align 8
  %.not45 = icmp eq ptr %24, null
  br i1 %.not45, label %zend_file_cache_unserialize_interned.exit, label %25

25:                                               ; preds = %23
  %26 = ptrtoint ptr %24 to i64
  %27 = and i64 %26, 1
  %.not46 = icmp eq i64 %27, 0
  br i1 %.not46, label %47, label %28

28:                                               ; preds = %25
  %29 = getelementptr inbounds i8, ptr %1, i64 384
  %30 = load i8, ptr %29, align 8
  %31 = and i8 %30, 1
  %.not48 = icmp eq i8 %31, 0
  %32 = load ptr, ptr getelementptr inbounds (%struct._zend_accel_globals, ptr @accel_globals, i64 0, i32 19), align 8
  %33 = and i64 %26, -2
  %34 = getelementptr inbounds i8, ptr %32, i64 %33
  br i1 %.not48, label %35, label %zend_file_cache_unserialize_interned.exit

35:                                               ; preds = %28
  %36 = tail call ptr @accel_new_interned_string(ptr noundef %34) #19
  %37 = icmp eq ptr %36, %34
  br i1 %37, label %38, label %zend_file_cache_unserialize_interned.exit

38:                                               ; preds = %35
  %39 = getelementptr inbounds i8, ptr %34, i64 16
  %40 = load i64, ptr %39, align 8
  %41 = add i64 %40, 25
  %42 = tail call ptr @zend_shared_alloc(i64 noundef %41) #19
  %.not.i = icmp eq ptr %42, null
  br i1 %.not.i, label %43, label %45

43:                                               ; preds = %38
  tail call void @zend_accel_schedule_restart_if_necessary(i32 noundef 0) #19
  %44 = load ptr, ptr getelementptr inbounds (%struct._zend_executor_globals, ptr @executor_globals, i64 0, i32 7), align 8
  tail call void @siglongjmp(ptr noundef %44, i32 noundef -1) #22
  unreachable

45:                                               ; preds = %38
  tail call void @llvm.memcpy.p0.p0.i64(ptr nonnull align 8 %42, ptr nonnull align 8 %34, i64 %41, i1 false)
  store i32 1, ptr %42, align 4
  %46 = getelementptr inbounds i8, ptr %42, i64 4
  store i32 470, ptr %46, align 4
  br label %zend_file_cache_unserialize_interned.exit

47:                                               ; preds = %25
  %48 = getelementptr inbounds i8, ptr %1, i64 424
  %49 = load i64, ptr %48, align 8
  %50 = inttoptr i64 %49 to ptr
  %51 = icmp ule ptr %24, %50
  tail call void @llvm.assume(i1 %51)
  %52 = getelementptr inbounds i8, ptr %2, i64 %26
  %53 = getelementptr inbounds i8, ptr %1, i64 384
  %54 = load i8, ptr %53, align 8
  %55 = and i8 %54, 1
  %.not47 = icmp eq i8 %55, 0
  %56 = getelementptr inbounds i8, ptr %52, i64 4
  %57 = load i32, ptr %56, align 4
  br i1 %.not47, label %58, label %60

58:                                               ; preds = %47
  %59 = or i32 %57, 320
  store i32 %59, ptr %56, align 4
  br label %zend_file_cache_unserialize_interned.exit

60:                                               ; preds = %47
  %61 = and i32 %57, -321
  %62 = or disjoint i32 %61, 64
  store i32 %62, ptr %56, align 4
  br label %zend_file_cache_unserialize_interned.exit

zend_file_cache_unserialize_interned.exit:        ; preds = %45, %35, %28, %23, %58, %60
  %.0 = phi ptr [ %52, %58 ], [ %52, %60 ], [ null, %23 ], [ %34, %28 ], [ %42, %45 ], [ %36, %35 ]
  store ptr %.0, ptr %0, align 8
  %63 = getelementptr inbounds i8, ptr %1, i64 384
  %64 = load i8, ptr %63, align 8
  %65 = and i8 %64, 1
  %.not49 = icmp eq i8 %65, 0
  br i1 %.not49, label %66, label %68

66:                                               ; preds = %zend_file_cache_unserialize_interned.exit
  %67 = tail call i32 @zend_accel_get_class_name_map_ptr(ptr noundef %.0) #19
  br label %.loopexit

68:                                               ; preds = %zend_file_cache_unserialize_interned.exit
  tail call void @zend_alloc_ce_cache(ptr noundef %.0) #19
  br label %.loopexit

.loopexit:                                        ; preds = %.lr.ph, %16, %21, %68, %66
  ret void
}